target datalayout = "e-m:e-p270:32:32-p271:32:32-p272:64:64-i64:64-i128:128-f80:128-n8:16:32:64-S128"
target triple = "x86_64-pc-linux-gnu"

%struct.WebPPicture = type { i32, i32, i32, i32, ptr, ptr, ptr, i32, i32, ptr, i32, [2 x i32], ptr, i32, [3 x i32], ptr, ptr, i32, ptr, ptr, i32, ptr, ptr, [3 x i32], ptr, ptr, [8 x i32], ptr, ptr, [2 x ptr] }

; Function Attrs: nounwind uwtable
define internal i32 @PictureARGBToYUVA(ptr noundef %0, i32 noundef %1, float noundef %2, i32 noundef %3) #0 {
  %5 = alloca i32, align 4
  %6 = alloca ptr, align 8
  %7 = alloca i32, align 4
  %8 = alloca float, align 4
  %9 = alloca i32, align 4
  %10 = alloca ptr, align 8
  %11 = alloca ptr, align 8
  %12 = alloca ptr, align 8
  %13 = alloca ptr, align 8
  %14 = alloca ptr, align 8
  store ptr %0, ptr %6, align 8, !tbaa !3
  store i32 %1, ptr %7, align 4, !tbaa !21
  store float %2, ptr %8, align 4, !tbaa !26
  store i32 %3, ptr %9, align 4, !tbaa !21
  %15 = load ptr, ptr %6, align 8, !tbaa !3
  %16 = icmp eq ptr %15, null
  br i1 %16, label %17, label %18

17:                                               ; preds = %4
  store i32 0, ptr %5, align 4
  br label %59

18:                                               ; preds = %4
  %19 = load ptr, ptr %6, align 8, !tbaa !3
  %20 = getelementptr inbounds nuw %struct.WebPPicture, ptr %19, i32 0, i32 12
  %21 = load ptr, ptr %20, align 8, !tbaa !14
  %22 = icmp eq ptr %21, null
  br i1 %22, label %23, label %26

23:                                               ; preds = %18
  %24 = load ptr, ptr %6, align 8, !tbaa !3
  %25 = call i32 @WebPEncodingSetError(ptr noundef %24, i32 noundef 3)
  store i32 %25, ptr %5, align 4
  br label %59

26:                                               ; preds = %18
  %27 = load i32, ptr %7, align 4, !tbaa !21
  %28 = and i32 %27, 3
  %29 = icmp ne i32 %28, 0
  br i1 %29, label %30, label %33

30:                                               ; preds = %26
  %31 = load ptr, ptr %6, align 8, !tbaa !3
  %32 = call i32 @WebPEncodingSetError(ptr noundef %31, i32 noundef 4)
  store i32 %32, ptr %5, align 4
  br label %59

33:                                               ; preds = %26
  call void @llvm.lifetime.start.p0(i64 8, ptr %10) #7
  %34 = load ptr, ptr %6, align 8, !tbaa !3
  %35 = getelementptr inbounds nuw %struct.WebPPicture, ptr %34, i32 0, i32 12
  %36 = load ptr, ptr %35, align 8, !tbaa !14
  store ptr %36, ptr %10, align 8, !tbaa !20
  call void @llvm.lifetime.start.p0(i64 8, ptr %11) #7
  %37 = load ptr, ptr %10, align 8, !tbaa !20
  %38 = getelementptr inbounds i8, ptr %37, i64 3
  store ptr %38, ptr %11, align 8, !tbaa !20
  call void @llvm.lifetime.start.p0(i64 8, ptr %12) #7
  %39 = load ptr, ptr %10, align 8, !tbaa !20
  %40 = getelementptr inbounds i8, ptr %39, i64 2
  store ptr %40, ptr %12, align 8, !tbaa !20
  call void @llvm.lifetime.start.p0(i64 8, ptr %13) #7
  %41 = load ptr, ptr %10, align 8, !tbaa !20
  %42 = getelementptr inbounds i8, ptr %41, i64 1
  store ptr %42, ptr %13, align 8, !tbaa !20
  call void @llvm.lifetime.start.p0(i64 8, ptr %14) #7
  %43 = load ptr, ptr %10, align 8, !tbaa !20
  %44 = getelementptr inbounds i8, ptr %43, i64 0
  store ptr %44, ptr %14, align 8, !tbaa !20
  %45 = load ptr, ptr %6, align 8, !tbaa !3
  %46 = getelementptr inbounds nuw %struct.WebPPicture, ptr %45, i32 0, i32 1
  store i32 0, ptr %46, align 4, !tbaa !28
  %47 = load ptr, ptr %12, align 8, !tbaa !20
  %48 = load ptr, ptr %13, align 8, !tbaa !20
  %49 = load ptr, ptr %14, align 8, !tbaa !20
  %50 = load ptr, ptr %11, align 8, !tbaa !20
  %51 = load ptr, ptr %6, align 8, !tbaa !3
  %52 = getelementptr inbounds nuw %struct.WebPPicture, ptr %51, i32 0, i32 13
  %53 = load i32, ptr %52, align 8, !tbaa !17
  %54 = mul nsw i32 4, %53
  %55 = load float, ptr %8, align 4, !tbaa !26
  %56 = load i32, ptr %9, align 4, !tbaa !21
  %57 = load ptr, ptr %6, align 8, !tbaa !3
  %58 = call i32 @ImportYUVAFromRGBA(ptr noundef %47, ptr noundef %48, ptr noundef %49, ptr noundef %50, i32 noundef 4, i32 noundef %54, float noundef %55, i32 noundef %56, ptr noundef %57)
  store i32 %58, ptr %5, align 4
  call void @llvm.lifetime.end.p0(i64 8, ptr %14) #7
  call void @llvm.lifetime.end.p0(i64 8, ptr %13) #7
  call void @llvm.lifetime.end.p0(i64 8, ptr %12) #7
  call void @llvm.lifetime.end.p0(i64 8, ptr %11) #7
  call void @llvm.lifetime.end.p0(i64 8, ptr %10) #7
  br label %59

59:                                               ; preds = %33, %30, %23, %17
  %60 = load i32, ptr %5, align 4
  ret i32 %60
}

; Function Attrs: nounwind uwtable
define i32 @WebPPictureSharpARGBToYUVA(ptr noundef %0) #0 {
  %2 = alloca ptr, align 8
  store ptr %0, ptr %2, align 8, !tbaa !3
  %3 = load ptr, ptr %2, align 8, !tbaa !3
  %4 = call i32 @PictureARGBToYUVA(ptr noundef %3, i32 noundef 0, float noundef 0.000000e+00, i32 noundef 1)
  ret i32 %4
}